; Function Attrs: mustprogress uwtable
define hidden noundef zeroext i1 @_ZNK3ue217ComponentSequence22checkEmbeddedEndAnchorEb(ptr noundef nonnull readonly align 8 captures(none) dereferenceable(88) %0, i1 noundef zeroext %1) unnamed_addr #0 align 2 {
  %3 = getelementptr inbounds nuw i8, ptr %0, i64 16
  %4 = getelementptr inbounds nuw i8, ptr %0, i64 24
  %5 = load ptr, ptr %4, align 8, !noalias !56
  %6 = load ptr, ptr %3, align 8, !noalias !59
  %.not3 = icmp eq ptr %5, %6
  br i1 %.not3, label %._crit_edge, label %.lr.ph

._crit_edge:                                      ; preds = %.lr.ph, %2
  %.0.in.lcssa = phi i1 [ %1, %2 ], [ %12, %.lr.ph ]
  ret i1 %.0.in.lcssa

.lr.ph:                                           ; preds = %2, %.lr.ph
  %.0.in5 = phi i1 [ %12, %.lr.ph ], [ %1, %2 ]
  %.sroa.02.04 = phi ptr [ %7, %.lr.ph ], [ %5, %2 ]
  %7 = getelementptr inbounds i8, ptr %.sroa.02.04, i64 -8
  %8 = load ptr, ptr %7, align 8
  %9 = load ptr, ptr %8, align 8
  %10 = getelementptr inbounds nuw i8, ptr %9, i64 112
  %11 = load ptr, ptr %10, align 8
  %12 = tail call noundef zeroext i1 %11(ptr noundef nonnull align 8 dereferenceable(16) %8, i1 noundef zeroext %.0.in5)
  %.not = icmp eq ptr %7, %6
  br i1 %.not, label %._crit_edge, label %.lr.ph, !llvm.loop !62
}